target datalayout = "e-m:e-p270:32:32-p271:32:32-p272:64:64-i64:64-i128:128-f80:128-n8:16:32:64-S128"
target triple = "x86_64-pc-linux-gnu"

; Function Attrs: mustprogress nounwind uwtable
define noundef i32 @_ZN10duckdb_hll12is_hex_digitEc(i8 noundef signext %0) #9 {
  %2 = alloca i8, align 1
  store i8 %0, ptr %2, align 1, !tbaa !9
  %3 = load i8, ptr %2, align 1, !tbaa !9
  %4 = sext i8 %3 to i32
  %5 = icmp sge i32 %4, 48
  br i1 %5, label %6, label %10

6:                                                ; preds = %1
  %7 = load i8, ptr %2, align 1, !tbaa !9
  %8 = sext i8 %7 to i32
  %9 = icmp sle i32 %8, 57
  br i1 %9, label %28, label %10

10:                                               ; preds = %6, %1
  %11 = load i8, ptr %2, align 1, !tbaa !9
  %12 = sext i8 %11 to i32
  %13 = icmp sge i32 %12, 97
  br i1 %13, label %14, label %18

14:                                               ; preds = %10
  %15 = load i8, ptr %2, align 1, !tbaa !9
  %16 = sext i8 %15 to i32
  %17 = icmp sle i32 %16, 102
  br i1 %17, label %28, label %18

18:                                               ; preds = %14, %10
  %19 = load i8, ptr %2, align 1, !tbaa !9
  %20 = sext i8 %19 to i32
  %21 = icmp sge i32 %20, 65
  br i1 %21, label %22, label %26

22:                                               ; preds = %18
  %23 = load i8, ptr %2, align 1, !tbaa !9
  %24 = sext i8 %23 to i32
  %25 = icmp sle i32 %24, 70
  br label %26

26:                                               ; preds = %22, %18
  %27 = phi i1 [ false, %18 ], [ %25, %22 ]
  br label %28

28:                                               ; preds = %26, %14, %6
  %29 = phi i1 [ true, %14 ], [ true, %6 ], [ %27, %26 ]
  %30 = zext i1 %29 to i32
  ret i32 %30
}