; Function Attrs: mustprogress nofree norecurse nosync nounwind willreturn memory(none) uwtable
define noundef range(i32 0, 2) i32 @_ZN10duckdb_hll12is_hex_digitEc(i8 noundef signext %0) local_unnamed_addr #23 {
  %2 = add i8 %0, -48
  %or.cond = icmp ult i8 %2, 10
  %3 = and i8 %0, -33
  %4 = add i8 %3, -65
  %5 = icmp ult i8 %4, 6
  %narrow = or i1 %or.cond, %5
  %6 = zext i1 %narrow to i32
  ret i32 %6
}